Certificate:
    Data:
        Version: 3 (0x2)
        Serial Number: 15525688074184533740 (0xd776530b7b49a6ec)
    Signature Algorithm: sha1WithRSAEncryption
        Issuer: C=KY, ST=GrandCayman, L=GeorgeTown, O=GoldenFrog-Inc, CN=GoldenFrog-Inc CA/emailAddress=admin@goldenfrog.com
        Validity
            Not Before: Apr  9 21:19:21 2010 GMT
            Not After : Apr  6 21:19:21 2020 GMT
        Subject: C=KY, ST=GrandCayman, L=GeorgeTown, O=GoldenFrog-Inc, CN=GoldenFrog-Inc CA/emailAddress=admin@goldenfrog.com
        Subject Public Key Info:
            Public Key Algorithm: rsaEncryption
                Public-Key: (2048 bit)
                Modulus:
                    00:df:b2:5e:b1:f0:b0:3a:3e:bd:7a:5d:00:9a:ac:
                    17:ca:25:09:d8:19:be:ab:4f:9e:47:d8:58:64:49:
                    3b:a5:5a:23:e5:d1:7d:46:b2:a2:ad:9c:82:33:ff:
                    73:12:f3:8d:e7:3e:29:64:c6:23:86:9c:eb:ab:a7:
                    a2:2e:ed:e3:d7:15:7a:95:7e:f7:1e:0d:1d:71:f9:
                    70:78:ce:62:ab:11:40:1c:2c:04:14:88:8c:a4:fc:
                    0e:80:b5:77:f7:db:1f:1c:2b:9d:6b:5d:5b:a0:83:
                    c4:e1:24:68:a3:15:0f:12:3b:bd:d3:c0:06:83:f8:
                    be:7a:09:ed:be:f4:76:77:ba:67:66:5d:92:08:9d:
                    6c:c6:56:de:00:09:18:8d:7e:84:5e:62:01:17:22:
                    5d:9a:bc:b5:cb:4e:41:b6:97:53:80:f9:93:94:9d:
                    1c:32:3e:c3:95:4f:b6:81:e8:4f:b2:cf:ea:e9:86:
                    11:02:1a:ca:b6:56:70:c5:eb:a7:73:e4:43:d3:88:
                    9e:6a:1f:9b:a1:85:34:08:16:62:9c:ad:84:45:1b:
                    80:8f:1d:e1:6c:21:38:6f:44:ba:7a:2c:eb:42:64:
                    ae:18:53:6e:e8:68:71:f8:4d:71:6a:cc:a5:d5:3c:
                    ff:7c:78:07:97:73:fd:dc:97:f4:b4:5a:2f:ee:eb:
                    b2:81
                Exponent: 65537 (0x10001)
        X509v3 extensions:
            X509v3 Subject Key Identifier: 
                E1:F4:78:8C:87:94:67:45:52:2D:FE:4B:57:75:D8:86:90:39:17:05
            X509v3 Authority Key Identifier: 
                keyid:E1:F4:78:8C:87:94:67:45:52:2D:FE:4B:57:75:D8:86:90:39:17:05
                DirName:/C=KY/ST=GrandCayman/L=GeorgeTown/O=GoldenFrog-Inc/CN=GoldenFrog-Inc CA/emailAddress=admin@goldenfrog.com
                serial:D7:76:53:0B:7B:49:A6:EC

            X509v3 Basic Constraints: 
                CA:TRUE
    Signature Algorithm: sha1WithRSAEncryption
         c2:28:6b:37:44:0d:13:5f:51:46:f1:b2:c0:1b:ec:60:39:b3:
         98:ce:46:f2:d6:b9:f3:20:7e:d3:63:33:6e:6d:0a:b9:5c:67:
         3c:96:a8:57:2e:0b:e1:6a:1c:02:7a:8b:78:a7:e6:a5:85:94:
         89:dd:4c:3f:00:cf:b7:0b:50:d3:45:3b:42:64:41:44:d2:d4:
         85:2e:81:b6:1d:70:5e:db:83:be:44:68:1e:0c:a6:4a:f8:35:
         fb:0a:27:24:da:6f:fd:5a:ae:36:0c:2d:ed:76:c2:f6:83:a3:
         54:47:7d:95:b5:1d:fa:db:71:cd:ba:08:f0:fd:5c:8b:af:88:
         f3:ad:4f:ca:50:34:0c:eb:fd:8f:96:db:9f:5a:04:d2:13:fc:
         c0:3b:f7:6d:39:25:11:ae:b5:db:3c:c4:56:79:df:83:0f:84:
         ad:59:e4:ae:79:3c:f1:f4:e2:bf:a3:59:b4:78:14:3a:59:4c:
         ab:bc:a6:95:5e:ee:b7:e0:4f:a7:6d:2b:8c:17:4e:08:d9:f6:
         43:b7:4d:08:a2:24:23:8e:6a:93:01:ed:5e:3c:c5:5c:8c:73:
         1a:ad:ed:2d:57:82:e7:88:3b:5d:92:1c:ed:7d:12:f5:ab:e0:
         00:4e:e1:f5:2b:91:62:6b:12:ce:f2:d3:b6:23:f5:a1:b3:02:
         1c:1e:5e:6d


-----BEGIN CERTIFICATE-----
MIIEpDCCA4ygAwIBAgIJANd2Uwt7SabsMA0GCSqGSIb3DQEBBQUAMIGSMQswCQYD
VQQGEwJLWTEUMBIGA1UECBMLR3JhbmRDYXltYW4xEzARBgNVBAcTCkdlb3JnZVRv
d24xFzAVBgNVBAoTDkdvbGRlbkZyb2ctSW5jMRowGAYDVQQDExFHb2xkZW5Gcm9n
LUluYyBDQTEjMCEGCSqGSIb3DQEJARYUYWRtaW5AZ29sZGVuZnJvZy5jb20wHhcN
MTAwNDA5MjExOTIxWhcNMjAwNDA2MjExOTIxWjCBkjELMAkGA1UEBhMCS1kxFDAS
BgNVBAgTC0dyYW5kQ2F5bWFuMRMwEQYDVQQHEwpHZW9yZ2VUb3duMRcwFQYDVQQK
Ew5Hb2xkZW5Gcm9nLUluYzEaMBgGA1UEAxMRR29sZGVuRnJvZy1JbmMgQ0ExIzAh
BgkqhkiG9w0BCQEWFGFkbWluQGdvbGRlbmZyb2cuY29tMIIBIjANBgkqhkiG9w0B
AQEFAAOCAQ8AMIIBCgKCAQEA37JesfCwOj69el0AmqwXyiUJ2Bm+q0+eR9hYZEk7
pVoj5dF9RrKirZyCM/9zEvON5z4pZMYjhpzrq6eiLu3j1xV6lX73Hg0dcflweM5i
qxFAHCwEFIiMpPwOgLV399sfHCuda11boIPE4SRooxUPEju908AGg/i+egntvvR2
d7pnZl2SCJ1sxlbeAAkYjX6EXmIBFyJdmry1y05BtpdTgPmTlJ0cMj7DlU+2gehP
ss/q6YYRAhrKtlZwxeunc+RD04ieah+boYU0CBZinK2ERRuAjx3hbCE4b0S6eizr
QmSuGFNu6Ghx+E1xasyl1Tz/fHgHl3P93Jf0tFov7uuygQIDAQABo4H6MIH3MB0G
A1UdDgQWBBTh9HiMh5RnRVIt/ktXddiGkDkXBTCBxwYDVR0jBIG/MIG8gBTh9HiM
h5RnRVIt/ktXddiGkDkXBaGBmKSBlTCBkjELMAkGA1UEBhMCS1kxFDASBgNVBAgT
C0dyYW5kQ2F5bWFuMRMwEQYDVQQHEwpHZW9yZ2VUb3duMRcwFQYDVQQKEw5Hb2xk
ZW5Gcm9nLUluYzEaMBgGA1UEAxMRR29sZGVuRnJvZy1JbmMgQ0ExIzAhBgkqhkiG
9w0BCQEWFGFkbWluQGdvbGRlbmZyb2cuY29tggkA13ZTC3tJpuwwDAYDVR0TBAUw
AwEB/zANBgkqhkiG9w0BAQUFAAOCAQEAwihrN0QNE19RRvGywBvsYDmzmM5G8ta5
8yB+02Mzbm0KuVxnPJaoVy4L4WocAnqLeKfmpYWUid1MPwDPtwtQ00U7QmRBRNLU
hS6Bth1wXtuDvkRoHgymSvg1+wonJNpv/VquNgwt7XbC9oOjVEd9lbUd+ttxzboI
8P1ci6+I861PylA0DOv9j5bbn1oE0hP8wDv3bTklEa612zzEVnnfgw+ErVnkrnk8
8fTiv6NZtHgUOllMq7ymlV7ut+BPp20rjBdOCNn2Q7dNCKIkI45qkwHtXjzFXIxz
Gq3tLVeC54g7XZIc7X0S9avgAE7h9SuRYmsSzvLTtiP1obMCHB5ebQ==
-----END CERTIFICATE-----
